target datalayout = "e-m:e-p270:32:32-p271:32:32-p272:64:64-i64:64-i128:128-f80:128-n8:16:32:64-S128"
target triple = "x86_64-pc-linux-gnu"

; Function Attrs: mustprogress uwtable
define i32 @mz_zip_reader_extract_file_to_mem_no_alloc(ptr noundef %0, ptr noundef %1, ptr noundef %2, i64 noundef %3, i32 noundef %4, ptr noundef %5, i64 noundef %6) #5 {
  %8 = alloca i32, align 4
  %9 = alloca ptr, align 8
  %10 = alloca ptr, align 8
  %11 = alloca ptr, align 8
  %12 = alloca i64, align 8
  %13 = alloca i32, align 4
  %14 = alloca ptr, align 8
  %15 = alloca i64, align 8
  %16 = alloca i32, align 4
  store ptr %0, ptr %9, align 8
  store ptr %1, ptr %10, align 8
  store ptr %2, ptr %11, align 8
  store i64 %3, ptr %12, align 8
  store i32 %4, ptr %13, align 4
  store ptr %5, ptr %14, align 8
  store i64 %6, ptr %15, align 8
  %17 = load ptr, ptr %9, align 8
  %18 = load ptr, ptr %10, align 8
  %19 = load i32, ptr %13, align 4
  %20 = call i32 @mz_zip_reader_locate_file(ptr noundef %17, ptr noundef %18, ptr noundef null, i32 noundef %19)
  store i32 %20, ptr %16, align 4
  %21 = load i32, ptr %16, align 4
  %22 = icmp slt i32 %21, 0
  br i1 %22, label %23, label %24

23:                                               ; preds = %7
  store i32 0, ptr %8, align 4
  br label %33

24:                                               ; preds = %7
  %25 = load ptr, ptr %9, align 8
  %26 = load i32, ptr %16, align 4
  %27 = load ptr, ptr %11, align 8
  %28 = load i64, ptr %12, align 8
  %29 = load i32, ptr %13, align 4
  %30 = load ptr, ptr %14, align 8
  %31 = load i64, ptr %15, align 8
  %32 = call i32 @mz_zip_reader_extract_to_mem_no_alloc(ptr noundef %25, i32 noundef %26, ptr noundef %27, i64 noundef %28, i32 noundef %29, ptr noundef %30, i64 noundef %31)
  store i32 %32, ptr %8, align 4
  br label %33

33:                                               ; preds = %24, %23
  %34 = load i32, ptr %8, align 4
  ret i32 %34
}