; Function Attrs: mustprogress uwtable
define i32 @mz_zip_reader_extract_file_to_mem_no_alloc(ptr noundef %0, ptr noundef %1, ptr noundef %2, i64 noundef %3, i32 noundef %4, ptr noundef %5, i64 noundef %6) local_unnamed_addr #9 {
  %8 = tail call i32 @mz_zip_reader_locate_file(ptr noundef %0, ptr noundef %1, ptr noundef null, i32 noundef %4)
  %9 = icmp slt i32 %8, 0
  br i1 %9, label %12, label %10

10:                                               ; preds = %7
  %11 = tail call i32 @mz_zip_reader_extract_to_mem_no_alloc(ptr noundef %0, i32 noundef %8, ptr noundef %2, i64 noundef %3, i32 noundef %4, ptr noundef %5, i64 noundef %6), !range !16
  br label %12

12:                                               ; preds = %7, %10
  %.0 = phi i32 [ %11, %10 ], [ 0, %7 ]
  ret i32 %.0
}